target datalayout = "e-m:e-p270:32:32-p271:32:32-p272:64:64-i64:64-i128:128-f80:128-n8:16:32:64-S128"
target triple = "x86_64-pc-linux-gnu"

%struct.GenerationContext = type { %struct.MemoryContextData, i32, i32, i32, i32, ptr, ptr, %struct.dlist_head }
%struct.MemoryContextData = type { i32, i8, i8, i64, ptr, ptr, ptr, ptr, ptr, ptr, ptr, ptr }
%struct.dlist_head = type { %struct.dlist_node }
%struct.dlist_node = type { ptr, ptr }
%struct.GenerationBlock = type { %struct.dlist_node, ptr, i64, i32, i32, ptr, ptr }
%struct.Node = type { i32 }
%struct.MemoryChunk = type { i64 }

@.str.2 = private unnamed_addr constant [13 x i8] c"generation.c\00", align 1
@.str.3 = private unnamed_addr constant [41 x i8] c"could not find block containing chunk %p\00", align 1
@__func__.GenerationFree = private unnamed_addr constant [15 x i8] c"GenerationFree\00", align 1

; Function Attrs: inlinehint nounwind uwtable
define internal void @dlist_delete(ptr noundef %0) #5 {
  %2 = alloca ptr, align 8
  store ptr %0, ptr %2, align 8
  %3 = load ptr, ptr %2, align 8
  %4 = getelementptr inbounds nuw %struct.dlist_node, ptr %3, i32 0, i32 1
  %5 = load ptr, ptr %4, align 8
  %6 = load ptr, ptr %2, align 8
  %7 = getelementptr inbounds nuw %struct.dlist_node, ptr %6, i32 0, i32 0
  %8 = load ptr, ptr %7, align 8
  %9 = getelementptr inbounds nuw %struct.dlist_node, ptr %8, i32 0, i32 1
  store ptr %5, ptr %9, align 8
  %10 = load ptr, ptr %2, align 8
  %11 = getelementptr inbounds nuw %struct.dlist_node, ptr %10, i32 0, i32 0
  %12 = load ptr, ptr %11, align 8
  %13 = load ptr, ptr %2, align 8
  %14 = getelementptr inbounds nuw %struct.dlist_node, ptr %13, i32 0, i32 1
  %15 = load ptr, ptr %14, align 8
  %16 = getelementptr inbounds nuw %struct.dlist_node, ptr %15, i32 0, i32 0
  store ptr %12, ptr %16, align 8
  ret void
}

; Function Attrs: inlinehint nounwind uwtable
define internal void @GenerationBlockFree(ptr noundef %0, ptr noundef %1) #5 {
  %3 = alloca ptr, align 8
  %4 = alloca ptr, align 8
  store ptr %0, ptr %3, align 8
  store ptr %1, ptr %4, align 8
  %5 = load ptr, ptr %4, align 8
  %6 = getelementptr inbounds nuw %struct.GenerationBlock, ptr %5, i32 0, i32 0
  call void @dlist_delete(ptr noundef %6)
  %7 = load ptr, ptr %4, align 8
  %8 = getelementptr inbounds nuw %struct.GenerationBlock, ptr %7, i32 0, i32 2
  %9 = load i64, ptr %8, align 8
  %10 = load ptr, ptr %3, align 8
  %11 = getelementptr inbounds nuw %struct.MemoryContextData, ptr %10, i32 0, i32 3
  %12 = load i64, ptr %11, align 8
  %13 = sub i64 %12, %9
  store i64 %13, ptr %11, align 8
  %14 = load ptr, ptr %4, align 8
  call void @free(ptr noundef %14) #12
  ret void
}

; Function Attrs: inlinehint nounwind uwtable
define internal void @GenerationBlockMarkEmpty(ptr noundef %0) #5 {
  %2 = alloca ptr, align 8
  store ptr %0, ptr %2, align 8
  br label %3

3:                                                ; preds = %1
  br label %4

4:                                                ; preds = %3
  %5 = load ptr, ptr %2, align 8
  %6 = getelementptr inbounds nuw %struct.GenerationBlock, ptr %5, i32 0, i32 3
  store i32 0, ptr %6, align 8
  %7 = load ptr, ptr %2, align 8
  %8 = getelementptr inbounds nuw %struct.GenerationBlock, ptr %7, i32 0, i32 4
  store i32 0, ptr %8, align 4
  %9 = load ptr, ptr %2, align 8
  %10 = getelementptr inbounds nuw i8, ptr %9, i64 56
  %11 = load ptr, ptr %2, align 8
  %12 = getelementptr inbounds nuw %struct.GenerationBlock, ptr %11, i32 0, i32 5
  store ptr %10, ptr %12, align 8
  ret void
}

; Function Attrs: inlinehint nounwind uwtable
define internal ptr @MemoryChunkGetBlock(ptr noundef %0) #5 {
  %2 = alloca ptr, align 8
  store ptr %0, ptr %2, align 8
  %3 = load ptr, ptr %2, align 8
  %4 = load ptr, ptr %2, align 8
  %5 = getelementptr inbounds nuw %struct.MemoryChunk, ptr %4, i32 0, i32 0
  %6 = load i64, ptr %5, align 8
  %7 = lshr i64 %6, 34
  %8 = and i64 %7, 1073741822
  %9 = sub i64 0, %8
  %10 = getelementptr inbounds i8, ptr %3, i64 %9
  ret ptr %10
}

; Function Attrs: inlinehint nounwind uwtable
define internal zeroext i1 @MemoryChunkIsExternal(ptr noundef %0) #5 {
  %2 = alloca ptr, align 8
  store ptr %0, ptr %2, align 8
  %3 = load ptr, ptr %2, align 8
  %4 = getelementptr inbounds nuw %struct.MemoryChunk, ptr %3, i32 0, i32 0
  %5 = load i64, ptr %4, align 8
  %6 = and i64 %5, 16
  %7 = icmp ne i64 %6, 0
  ret i1 %7
}

; Function Attrs: nounwind uwtable
define dso_local void @GenerationFree(ptr noundef %0) #0 {
  %2 = alloca ptr, align 8
  %3 = alloca ptr, align 8
  %4 = alloca ptr, align 8
  %5 = alloca ptr, align 8
  %6 = alloca i32, align 4
  store ptr %0, ptr %2, align 8
  call void @llvm.lifetime.start.p0(i64 8, ptr %3) #12
  %7 = load ptr, ptr %2, align 8
  %8 = getelementptr inbounds i8, ptr %7, i64 -8
  store ptr %8, ptr %3, align 8
  call void @llvm.lifetime.start.p0(i64 8, ptr %4) #12
  call void @llvm.lifetime.start.p0(i64 8, ptr %5) #12
  br label %9

9:                                                ; preds = %1
  br label %10

10:                                               ; preds = %9
  br label %11

11:                                               ; preds = %10
  %12 = load ptr, ptr %3, align 8
  %13 = call zeroext i1 @MemoryChunkIsExternal(ptr noundef %12)
  br i1 %13, label %14, label %44

14:                                               ; preds = %11
  %15 = load ptr, ptr %3, align 8
  %16 = getelementptr inbounds i8, ptr %15, i64 -56
  store ptr %16, ptr %4, align 8
  %17 = load ptr, ptr %4, align 8
  %18 = icmp ne ptr %17, null
  br i1 %18, label %19, label %31

19:                                               ; preds = %14
  %20 = load ptr, ptr %4, align 8
  %21 = getelementptr inbounds nuw %struct.GenerationBlock, ptr %20, i32 0, i32 1
  %22 = load ptr, ptr %21, align 8
  %23 = icmp ne ptr %22, null
  br i1 %23, label %24, label %31

24:                                               ; preds = %19
  %25 = load ptr, ptr %4, align 8
  %26 = getelementptr inbounds nuw %struct.GenerationBlock, ptr %25, i32 0, i32 1
  %27 = load ptr, ptr %26, align 8
  %28 = getelementptr inbounds nuw %struct.Node, ptr %27, i32 0, i32 0
  %29 = load i32, ptr %28, align 4
  %30 = icmp eq i32 %29, 474
  br i1 %30, label %43, label %31

31:                                               ; preds = %24, %19, %14
  br label %32

32:                                               ; preds = %31
  br i1 true, label %33, label %35

33:                                               ; preds = %32
  %34 = call zeroext i1 @errstart_cold(i32 noundef 21, ptr noundef null) #14
  br i1 %34, label %37, label %40

35:                                               ; preds = %32
  %36 = call zeroext i1 @errstart(i32 noundef 21, ptr noundef null)
  br i1 %36, label %37, label %40

37:                                               ; preds = %35, %33
  %38 = load ptr, ptr %3, align 8
  %39 = call i32 (ptr, ...) @errmsg_internal(ptr noundef @.str.3, ptr noundef %38)
  call void @errfinish(ptr noundef @.str.2, i32 noundef 711, ptr noundef @__func__.GenerationFree)
  br label %40

40:                                               ; preds = %37, %35, %33
  unreachable

41:                                               ; No predecessors!
  br label %42

42:                                               ; preds = %41
  br label %43

43:                                               ; preds = %42, %24
  br label %47

44:                                               ; preds = %11
  %45 = load ptr, ptr %3, align 8
  %46 = call ptr @MemoryChunkGetBlock(ptr noundef %45)
  store ptr %46, ptr %4, align 8
  br label %47

47:                                               ; preds = %44, %43
  %48 = load ptr, ptr %4, align 8
  %49 = getelementptr inbounds nuw %struct.GenerationBlock, ptr %48, i32 0, i32 4
  %50 = load i32, ptr %49, align 4
  %51 = add i32 %50, 1
  store i32 %51, ptr %49, align 4
  %52 = load ptr, ptr %4, align 8
  %53 = getelementptr inbounds nuw %struct.GenerationBlock, ptr %52, i32 0, i32 4
  %54 = load i32, ptr %53, align 4
  %55 = load ptr, ptr %4, align 8
  %56 = getelementptr inbounds nuw %struct.GenerationBlock, ptr %55, i32 0, i32 3
  %57 = load i32, ptr %56, align 8
  %58 = icmp slt i32 %54, %57
  %59 = zext i1 %58 to i32
  %60 = icmp ne i32 %59, 0
  %61 = zext i1 %60 to i32
  %62 = sext i32 %61 to i64
  %63 = call i64 @llvm.expect.i64(i64 %62, i64 1)
  %64 = icmp ne i64 %63, 0
  br i1 %64, label %65, label %66

65:                                               ; preds = %47
  store i32 1, ptr %6, align 4
  br label %97

66:                                               ; preds = %47
  %67 = load ptr, ptr %4, align 8
  %68 = getelementptr inbounds nuw %struct.GenerationBlock, ptr %67, i32 0, i32 1
  %69 = load ptr, ptr %68, align 8
  store ptr %69, ptr %5, align 8
  %70 = load ptr, ptr %4, align 8
  %71 = load ptr, ptr %5, align 8
  %72 = getelementptr inbounds nuw i8, ptr %71, i64 128
  %73 = icmp eq ptr %70, %72
  br i1 %73, label %80, label %74

74:                                               ; preds = %66
  %75 = load ptr, ptr %5, align 8
  %76 = getelementptr inbounds nuw %struct.GenerationContext, ptr %75, i32 0, i32 5
  %77 = load ptr, ptr %76, align 8
  %78 = load ptr, ptr %4, align 8
  %79 = icmp eq ptr %77, %78
  br i1 %79, label %80, label %82

80:                                               ; preds = %74, %66
  %81 = load ptr, ptr %4, align 8
  call void @GenerationBlockMarkEmpty(ptr noundef %81)
  br label %96

82:                                               ; preds = %74
  %83 = load ptr, ptr %5, align 8
  %84 = getelementptr inbounds nuw %struct.GenerationContext, ptr %83, i32 0, i32 6
  %85 = load ptr, ptr %84, align 8
  %86 = icmp eq ptr %85, null
  br i1 %86, label %87, label %92

87:                                               ; preds = %82
  %88 = load ptr, ptr %4, align 8
  call void @GenerationBlockMarkEmpty(ptr noundef %88)
  %89 = load ptr, ptr %4, align 8
  %90 = load ptr, ptr %5, align 8
  %91 = getelementptr inbounds nuw %struct.GenerationContext, ptr %90, i32 0, i32 6
  store ptr %89, ptr %91, align 8
  br label %95

92:                                               ; preds = %82
  %93 = load ptr, ptr %5, align 8
  %94 = load ptr, ptr %4, align 8
  call void @GenerationBlockFree(ptr noundef %93, ptr noundef %94)
  br label %95

95:                                               ; preds = %92, %87
  br label %96

96:                                               ; preds = %95, %80
  store i32 0, ptr %6, align 4
  br label %97

97:                                               ; preds = %96, %65
  call void @llvm.lifetime.end.p0(i64 8, ptr %5) #12
  call void @llvm.lifetime.end.p0(i64 8, ptr %4) #12
  call void @llvm.lifetime.end.p0(i64 8, ptr %3) #12
  %98 = load i32, ptr %6, align 4
  switch i32 %98, label %100 [
    i32 0, label %99
    i32 1, label %99
  ]

99:                                               ; preds = %97, %97
  ret void

100:                                              ; preds = %97
  unreachable
}