; Function Attrs: nounwind uwtable
define dso_local void @GenerationFree(ptr noundef %0) local_unnamed_addr #0 {
  %2 = getelementptr inbounds i8, ptr %0, i64 -8
  %.val = load i64, ptr %2, align 8
  %3 = and i64 %.val, 16
  %.not24 = icmp eq i64 %3, 0
  br i1 %.not24, label %14, label %4

4:                                                ; preds = %1
  %5 = getelementptr inbounds i8, ptr %0, i64 -48
  %6 = load ptr, ptr %5, align 8
  %.not = icmp eq ptr %6, null
  br i1 %.not, label %11, label %7

7:                                                ; preds = %4
  %8 = getelementptr inbounds i8, ptr %0, i64 -64
  %9 = load i32, ptr %6, align 4
  %10 = icmp eq i32 %9, 474
  br i1 %10, label %19, label %11

11:                                               ; preds = %7, %4
  %12 = tail call zeroext i1 @errstart_cold(i32 noundef 21, ptr noundef null) #16
  tail call void @llvm.assume(i1 %12)
  %13 = tail call i32 (ptr, ...) @errmsg_internal(ptr noundef nonnull @.str.3, ptr noundef nonnull %2) #15
  tail call void @errfinish(ptr noundef nonnull @.str.2, i32 noundef 711, ptr noundef nonnull @__func__.GenerationFree) #15
  unreachable

14:                                               ; preds = %1
  %15 = lshr i64 %.val, 34
  %16 = and i64 %15, 1073741822
  %17 = sub nsw i64 0, %16
  %18 = getelementptr inbounds i8, ptr %2, i64 %17
  br label %19

19:                                               ; preds = %7, %14
  %.0 = phi ptr [ %8, %7 ], [ %18, %14 ]
  %20 = getelementptr inbounds nuw i8, ptr %.0, i64 36
  %21 = load i32, ptr %20, align 4
  %22 = add i32 %21, 1
  store i32 %22, ptr %20, align 4
  %23 = getelementptr inbounds nuw i8, ptr %.0, i64 32
  %24 = load i32, ptr %23, align 8
  %25 = icmp slt i32 %22, %24
  br i1 %25, label %56, label %26, !prof !8

26:                                               ; preds = %19
  %27 = getelementptr inbounds nuw i8, ptr %.0, i64 16
  %28 = load ptr, ptr %27, align 8
  %29 = getelementptr inbounds nuw i8, ptr %28, i64 128
  %30 = icmp eq ptr %.0, %29
  br i1 %30, label %35, label %31

31:                                               ; preds = %26
  %32 = getelementptr inbounds nuw i8, ptr %28, i64 96
  %33 = load ptr, ptr %32, align 8
  %34 = icmp eq ptr %33, %.0
  br i1 %34, label %35, label %38

35:                                               ; preds = %31, %26
  store i32 0, ptr %23, align 8
  store i32 0, ptr %20, align 4
  %36 = getelementptr inbounds nuw i8, ptr %.0, i64 56
  %37 = getelementptr inbounds nuw i8, ptr %.0, i64 40
  store ptr %36, ptr %37, align 8
  br label %56

38:                                               ; preds = %31
  %39 = getelementptr inbounds nuw i8, ptr %28, i64 104
  %40 = load ptr, ptr %39, align 8
  %41 = icmp eq ptr %40, null
  br i1 %41, label %42, label %45

42:                                               ; preds = %38
  store i32 0, ptr %23, align 8
  store i32 0, ptr %20, align 4
  %43 = getelementptr inbounds nuw i8, ptr %.0, i64 56
  %44 = getelementptr inbounds nuw i8, ptr %.0, i64 40
  store ptr %43, ptr %44, align 8
  store ptr %.0, ptr %39, align 8
  br label %56

45:                                               ; preds = %38
  %46 = getelementptr inbounds nuw i8, ptr %.0, i64 8
  %47 = load ptr, ptr %46, align 8
  %48 = load ptr, ptr %.0, align 8
  %49 = getelementptr inbounds nuw i8, ptr %48, i64 8
  store ptr %47, ptr %49, align 8
  %50 = load ptr, ptr %.0, align 8
  store ptr %50, ptr %47, align 8
  %51 = getelementptr inbounds nuw i8, ptr %.0, i64 24
  %52 = load i64, ptr %51, align 8
  %53 = getelementptr inbounds nuw i8, ptr %28, i64 8
  %54 = load i64, ptr %53, align 8
  %55 = sub i64 %54, %52
  store i64 %55, ptr %53, align 8
  tail call void @free(ptr noundef nonnull %.0) #15
  br label %56

56:                                               ; preds = %35, %45, %42, %19
  ret void
}